#include <math.h>
#include <stdio.h>
#include <stdlib.h>
#include <string.h>


void main(){
	long secmax=-32767,max=-32767;
	int n,i=-1,chg=0,maxchg=0;
	char ch;
	do{
		i++;
		scanf("%d",&n);
		if(n>max){
			secmax=max;
			if(maxchg) chg=1;
			max=n;
			maxchg=1;
		}else if(n>secmax&&n!=max){
			secmax=n;
			chg=1;
		}
		ch=getchar();
	}while(ch==',');
	if(i<2||!chg)
		printf("No");
	else
		printf("%d",secmax);
}