; ModuleID = 'source-C-CXX/21/96.c'
source_filename = "source-C-CXX/21/96.c"
target datalayout = "e-m:e-p270:32:32-p271:32:32-p272:64:64-i64:64-f80:128-n8:16:32:64-S128"
target triple = "x86_64-pc-linux-gnu"

%struct._IO_FILE = type { i32, i8*, i8*, i8*, i8*, i8*, i8*, i8*, i8*, i8*, i8*, i8*, %struct._IO_marker*, %struct._IO_FILE*, i32, i32, i64, i16, i8, [1 x i8], i8*, i64, %struct._IO_codecvt*, %struct._IO_wide_data*, %struct._IO_FILE*, i8*, i64, i32, [20 x i8] }
%struct._IO_marker = type opaque
%struct._IO_codecvt = type opaque
%struct._IO_wide_data = type opaque

@.str = private unnamed_addr constant [3 x i8] c"%d\00", align 1
@.str.1 = private unnamed_addr constant [3 x i8] c"No\00", align 1
@stdin = external local_unnamed_addr global %struct._IO_FILE*, align 8

; Function Attrs: nofree nounwind sspstrong uwtable
define dso_local void @main() local_unnamed_addr #0 {
  %1 = alloca i32, align 4
  %2 = bitcast i32* %1 to i8*
  call void @llvm.lifetime.start.p0i8(i64 4, i8* nonnull %2) #3
  br label %3

3:                                                ; preds = %23, %0
  %4 = phi i64 [ -32767, %0 ], [ %24, %23 ]
  %5 = phi i32 [ -1, %0 ], [ %9, %23 ]
  %6 = phi i32 [ 0, %0 ], [ %25, %23 ]
  %7 = phi i32 [ 0, %0 ], [ %26, %23 ]
  %8 = phi i64 [ -32767, %0 ], [ %27, %23 ]
  %9 = add nsw i32 %5, 1
  %10 = call i32 (i8*, ...) @__isoc99_scanf(i8* getelementptr inbounds ([3 x i8], [3 x i8]* @.str, i64 0, i64 0), i32* nonnull %1)
  %11 = load i32, i32* %1, align 4, !tbaa !5
  %12 = sext i32 %11 to i64
  %13 = icmp slt i64 %4, %12
  br i1 %13, label %14, label %17

14:                                               ; preds = %3
  %15 = icmp eq i32 %7, 0
  %16 = select i1 %15, i32 %6, i32 1
  br label %23

17:                                               ; preds = %3
  %18 = icmp sge i64 %8, %12
  %19 = icmp eq i64 %4, %12
  %20 = select i1 %18, i1 true, i1 %19
  %21 = select i1 %20, i32 %6, i32 1
  %22 = select i1 %20, i64 %8, i64 %12
  br label %23

23:                                               ; preds = %17, %14
  %24 = phi i64 [ %12, %14 ], [ %4, %17 ]
  %25 = phi i32 [ %16, %14 ], [ %21, %17 ]
  %26 = phi i32 [ 1, %14 ], [ %7, %17 ]
  %27 = phi i64 [ %4, %14 ], [ %22, %17 ]
  %28 = load %struct._IO_FILE*, %struct._IO_FILE** @stdin, align 8, !tbaa !9
  %29 = call i32 @getc(%struct._IO_FILE* %28) #3
  %30 = and i32 %29, 255
  %31 = icmp eq i32 %30, 44
  br i1 %31, label %3, label %32, !llvm.loop !11

32:                                               ; preds = %23
  %33 = icmp sgt i32 %5, 0
  %34 = icmp ne i32 %25, 0
  %35 = select i1 %33, i1 %34, i1 false
  br i1 %35, label %38, label %36

36:                                               ; preds = %32
  %37 = call i32 (i8*, ...) @printf(i8* nonnull dereferenceable(1) getelementptr inbounds ([3 x i8], [3 x i8]* @.str.1, i64 0, i64 0))
  br label %40

38:                                               ; preds = %32
  %39 = call i32 (i8*, ...) @printf(i8* nonnull dereferenceable(1) getelementptr inbounds ([3 x i8], [3 x i8]* @.str, i64 0, i64 0), i64 %27)
  br label %40

40:                                               ; preds = %38, %36
  call void @llvm.lifetime.end.p0i8(i64 4, i8* nonnull %2) #3
  ret void
}

; Function Attrs: argmemonly mustprogress nofree nosync nounwind willreturn
declare void @llvm.lifetime.start.p0i8(i64 immarg, i8* nocapture) #1

; Function Attrs: nofree nounwind
declare noundef i32 @__isoc99_scanf(i8* nocapture noundef readonly, ...) local_unnamed_addr #2

; Function Attrs: nofree nounwind
declare noundef i32 @printf(i8* nocapture noundef readonly, ...) local_unnamed_addr #2

; Function Attrs: argmemonly mustprogress nofree nosync nounwind willreturn
declare void @llvm.lifetime.end.p0i8(i64 immarg, i8* nocapture) #1

; Function Attrs: nofree nounwind
declare noundef i32 @getc(%struct._IO_FILE* nocapture noundef) local_unnamed_addr #2


!llvm.module.flags = !{!0, !1, !2, !3}
!llvm.ident = !{!4}

!0 = !{i32 1, !"wchar_size", i32 4}
!1 = !{i32 7, !"PIC Level", i32 2}
!2 = !{i32 7, !"PIE Level", i32 2}
!3 = !{i32 7, !"uwtable", i32 1}
!4 = !{!"clang version 13.0.0"}
!5 = !{!6, !6, i64 0}
!6 = !{!"int", !7, i64 0}
!7 = !{!"omnipotent char", !8, i64 0}
!8 = !{!"Simple C/C++ TBAA"}
!9 = !{!10, !10, i64 0}
!10 = !{!"any pointer", !7, i64 0}
!11 = distinct !{!11, !12}
!12 = !{!"llvm.loop.mustprogress"}
